; ModuleID = '16/986.c'
source_filename = "16/986.c"
target datalayout = "e-m:e-p270:32:32-p271:32:32-p272:64:64-i64:64-f80:128-n8:16:32:64-S128"
target triple = "x86_64-pc-linux-gnu"

@.str = private unnamed_addr constant [3 x i8] c"%c\00", align 1

; Function Attrs: noinline nounwind uwtable
define dso_local i32 @main() #0 {
  %1 = alloca i32, align 4
  %2 = alloca i8*, align 8
  %3 = alloca i32, align 4
  store i32 0, i32* %1, align 4
  %4 = call noalias i8* @malloc(i64 8) #3
  store i8* %4, i8** %2, align 8
  store i32 0, i32* %3, align 4
  br label %5

5:                                                ; preds = %20, %0
  %6 = load i32, i32* %3, align 4
  %7 = icmp slt i32 %6, 6
  br i1 %7, label %8, label %23

8:                                                ; preds = %5
  %9 = load i8*, i8** %2, align 8
  %10 = call i32 (i8*, ...) @__isoc99_scanf(i8* getelementptr inbounds ([3 x i8], [3 x i8]* @.str, i64 0, i64 0), i8* %9)
  %11 = load i8*, i8** %2, align 8
  %12 = load i8, i8* %11, align 1
  %13 = sext i8 %12 to i32
  %14 = icmp eq i32 %13, 10
  br i1 %14, label %15, label %17

15:                                               ; preds = %8
  %16 = load i8*, i8** %2, align 8
  store i8 0, i8* %16, align 1
  br label %23

17:                                               ; preds = %8
  %18 = load i8*, i8** %2, align 8
  %19 = getelementptr inbounds i8, i8* %18, i32 1
  store i8* %19, i8** %2, align 8
  br label %20

20:                                               ; preds = %17
  %21 = load i32, i32* %3, align 4
  %22 = add nsw i32 %21, 1
  store i32 %22, i32* %3, align 4
  br label %5

23:                                               ; preds = %15, %5
  %24 = load i32, i32* %3, align 4
  %25 = sub nsw i32 %24, 1
  store i32 %25, i32* %3, align 4
  br label %26

26:                                               ; preds = %36, %23
  %27 = load i32, i32* %3, align 4
  %28 = icmp sge i32 %27, 0
  br i1 %28, label %29, label %39

29:                                               ; preds = %26
  %30 = load i8*, i8** %2, align 8
  %31 = getelementptr inbounds i8, i8* %30, i32 -1
  store i8* %31, i8** %2, align 8
  %32 = load i8*, i8** %2, align 8
  %33 = load i8, i8* %32, align 1
  %34 = sext i8 %33 to i32
  %35 = call i32 (i8*, ...) @printf(i8* getelementptr inbounds ([3 x i8], [3 x i8]* @.str, i64 0, i64 0), i32 %34)
  br label %36

36:                                               ; preds = %29
  %37 = load i32, i32* %3, align 4
  %38 = add nsw i32 %37, -1
  store i32 %38, i32* %3, align 4
  br label %26

39:                                               ; preds = %26
  ret i32 0
}

; Function Attrs: nounwind
declare dso_local noalias i8* @malloc(i64) #1

declare dso_local i32 @__isoc99_scanf(i8*, ...) #2

declare dso_local i32 @printf(i8*, ...) #2


!llvm.module.flags = !{!0}
!llvm.ident = !{!1}

!0 = !{i32 1, !"wchar_size", i32 4}
!1 = !{!"clang version 10.0.0-4ubuntu1 "}
